; Function Attrs: mustprogress uwtable
define noundef ptr @_ZNK20AdvancedPrefDelegate12createEditorEP7QWidgetRK20QStyleOptionViewItemRK11QModelIndex(ptr nocapture nonnull readnone align 8 %0, ptr noundef %1, ptr noundef nonnull align 8 dereferenceable(208) %2, ptr noundef nonnull align 8 dereferenceable(24) %3) unnamed_addr #0 align 2 personality ptr @__gxx_personality_v0 {
  %5 = alloca %class.QVariant, align 8
  %6 = alloca %class.QVariant, align 8
  %7 = alloca %class.QVariant, align 8
  %8 = getelementptr inbounds i8, ptr %3, i64 4
  %9 = load i32, ptr %8, align 4
  switch i32 %9, label %_ZN7QStringD2Ev.exit [
    i32 0, label %10
    i32 1, label %10
    i32 2, label %10
    i32 3, label %.noexc
  ]

10:                                               ; preds = %4, %4, %4
  %11 = getelementptr inbounds i8, ptr %3, i64 16
  %12 = load ptr, ptr %11, align 8
  call void @llvm.memset.p0.i64(ptr noundef nonnull align 8 dereferenceable(24) %7, i8 0, i64 24, i1 false)
  %13 = getelementptr inbounds i8, ptr %7, i64 24
  store i64 2, ptr %13, align 8
  %14 = load ptr, ptr %12, align 8
  %15 = getelementptr inbounds i8, ptr %14, i64 152
  %16 = load ptr, ptr %15, align 8
  %17 = invoke noundef zeroext i1 %16(ptr noundef nonnull align 8 dereferenceable(16) %12, ptr noundef nonnull align 8 dereferenceable(24) %3, ptr noundef nonnull align 8 dereferenceable(32) %7, i32 noundef 2)
          to label %18 unwind label %19

18:                                               ; preds = %10
  call void @_ZN8QVariantD1Ev(ptr noundef nonnull align 8 dereferenceable(32) %7) #7
  br label %_ZN7QStringD2Ev.exit

19:                                               ; preds = %10
  %20 = landingpad { ptr, i32 }
          cleanup
  br label %_ZN7QStringD2Ev.exit25

.noexc:                                           ; preds = %4
  call void @llvm.lifetime.start.p0(i64 32, ptr nonnull %5)
  call void @llvm.lifetime.start.p0(i64 32, ptr nonnull %6)
  %21 = getelementptr inbounds i8, ptr %3, i64 16
  %22 = load ptr, ptr %21, align 8
  %23 = load ptr, ptr %22, align 8
  %24 = getelementptr inbounds i8, ptr %23, i64 144
  %25 = load ptr, ptr %24, align 8
  call void %25(ptr dead_on_unwind nonnull writable sret(%class.QVariant) align 8 %5, ptr noundef nonnull align 8 dereferenceable(16) %22, ptr noundef nonnull align 8 dereferenceable(24) %3, i32 noundef 256)
  invoke void @_ZN8QVariantC1ERKS_(ptr noundef nonnull align 8 dereferenceable(32) %6, ptr noundef nonnull align 8 dereferenceable(32) %5)
          to label %26 unwind label %28

26:                                               ; preds = %.noexc
  %27 = invoke noundef ptr @_Z13qvariant_castIPvET_RK8QVariant(ptr noundef nonnull align 8 dereferenceable(32) %6)
          to label %32 unwind label %30

28:                                               ; preds = %.noexc
  %29 = landingpad { ptr, i32 }
          cleanup
  br label %_ZN7QStringD2Ev.exit25

30:                                               ; preds = %26
  %31 = landingpad { ptr, i32 }
          cleanup
  call void @_ZN8QVariantD1Ev(ptr noundef nonnull align 8 dereferenceable(32) %6) #7
  br label %_ZN7QStringD2Ev.exit25

32:                                               ; preds = %26
  call void @_ZN8QVariantD1Ev(ptr noundef nonnull align 8 dereferenceable(32) %6) #7
  call void @_ZN8QVariantD1Ev(ptr noundef nonnull align 8 dereferenceable(32) %5) #7
  call void @llvm.lifetime.end.p0(i64 32, ptr nonnull %5)
  call void @llvm.lifetime.end.p0(i64 32, ptr nonnull %6)
  %33 = call noundef ptr @_ZN17PreferenceManager8instanceEv()
  %34 = call noundef ptr @_ZN17PreferenceManager13getPreferenceEP9PrefsItem(ptr noundef nonnull align 8 dereferenceable(16) %33, ptr noundef %27)
  %.not = icmp eq ptr %34, null
  br i1 %.not, label %_ZN7QStringD2Ev.exit, label %35

35:                                               ; preds = %32
  %36 = load ptr, ptr %34, align 8
  %37 = getelementptr inbounds i8, ptr %36, i64 96
  %38 = load ptr, ptr %37, align 8
  %39 = call noundef ptr %38(ptr noundef nonnull align 8 dereferenceable(24) %34, ptr noundef %1, ptr noundef nonnull align 8 dereferenceable(208) %2, ptr noundef nonnull align 8 dereferenceable(24) %3)
  %.not20 = icmp eq ptr %39, null
  br i1 %.not20, label %_ZN7QStringD2Ev.exit, label %40

40:                                               ; preds = %35
  call void @_ZN7QWidget21setAutoFillBackgroundEb(ptr noundef nonnull align 8 dereferenceable(40) %39, i1 noundef zeroext true)
  br label %_ZN7QStringD2Ev.exit

_ZN7QStringD2Ev.exit:                             ; preds = %40, %35, %32, %18, %4
  %.0 = phi ptr [ %39, %40 ], [ null, %35 ], [ null, %32 ], [ null, %18 ], [ null, %4 ]
  ret ptr %.0

_ZN7QStringD2Ev.exit25:                           ; preds = %28, %30, %19
  %.sink = phi ptr [ %7, %19 ], [ %5, %30 ], [ %5, %28 ]
  %.pn = phi { ptr, i32 } [ %20, %19 ], [ %31, %30 ], [ %29, %28 ]
  call void @_ZN8QVariantD1Ev(ptr noundef nonnull align 8 dereferenceable(32) %.sink) #7
  resume { ptr, i32 } %.pn
}